target datalayout = "e-m:e-p270:32:32-p271:32:32-p272:64:64-i64:64-i128:128-f80:128-n8:16:32:64-S128"
target triple = "x86_64-pc-linux-gnu"

@tap_level = internal global i32 0, align 4
@.str.21 = private unnamed_addr constant [1 x i8] zeroinitializer, align 1
@stderr = external global ptr, align 8
@.str.22 = private unnamed_addr constant [4 x i8] c"%*s\00", align 1

; Function Attrs: nounwind uwtable
define dso_local i32 @test_vprintf_taperr(ptr noundef %0, ptr noundef %1) #0 {
  %3 = alloca ptr, align 8
  %4 = alloca ptr, align 8
  store ptr %0, ptr %3, align 8, !tbaa !32
  store ptr %1, ptr %4, align 8, !tbaa !33
  %5 = load ptr, ptr @stderr, align 8, !tbaa !35
  %6 = load i32, ptr @tap_level, align 4, !tbaa !4
  %7 = call i32 (ptr, ptr, ...) @fprintf(ptr noundef %5, ptr noundef @.str.22, i32 noundef %6, ptr noundef @.str.21) #4
  %8 = load ptr, ptr @stderr, align 8, !tbaa !35
  %9 = load ptr, ptr %3, align 8, !tbaa !32
  %10 = load ptr, ptr %4, align 8, !tbaa !33
  %11 = call i32 @vfprintf(ptr noundef %8, ptr noundef %9, ptr noundef %10) #4
  %12 = add nsw i32 %7, %11
  ret i32 %12
}